; Function Attrs: mustprogress uwtable
define noundef ptr @_ZNK6icu_7512RegexPattern7matcherER10UErrorCode(ptr noundef nonnull align 8 dereferenceable(200) %this, ptr nocapture noundef nonnull align 4 dereferenceable(4) %status) unnamed_addr #1 align 2 personality ptr @__gxx_personality_v0 {
entry:
  %0 = load i32, ptr %status, align 4
  %cmp.i = icmp slt i32 %0, 1
  br i1 %cmp.i, label %if.end, label %return

if.end:                                           ; preds = %entry
  %fDeferredStatus = getelementptr inbounds i8, ptr %this, i64 120
  %1 = load i32, ptr %fDeferredStatus, align 8
  %cmp.i4 = icmp slt i32 %1, 1
  br i1 %cmp.i4, label %if.end6, label %return.sink.split

if.end6:                                          ; preds = %if.end
  %call7 = tail call noundef ptr @_ZN6icu_757UMemorynwEm(i64 noundef 336) #11
  %new.isnull = icmp eq ptr %call7, null
  br i1 %new.isnull, label %return.sink.split, label %new.notnull

new.notnull:                                      ; preds = %if.end6
  invoke void @_ZN6icu_7512RegexMatcherC1EPKNS_12RegexPatternE(ptr noundef nonnull align 8 dereferenceable(336) %call7, ptr noundef nonnull %this)
          to label %return unwind label %lpad

lpad:                                             ; preds = %new.notnull
  %2 = landingpad { ptr, i32 }
          cleanup
  tail call void @_ZN6icu_757UMemorydlEPv(ptr noundef nonnull %call7) #11
  resume { ptr, i32 } %2

return.sink.split:                                ; preds = %if.end6, %if.end
  %.sink = phi i32 [ %1, %if.end ], [ 7, %if.end6 ]
  store i32 %.sink, ptr %status, align 4
  br label %return

return:                                           ; preds = %return.sink.split, %new.notnull, %entry
  %retval.0 = phi ptr [ null, %entry ], [ %call7, %new.notnull ], [ null, %return.sink.split ]
  ret ptr %retval.0
}